; Function Attrs: mustprogress uwtable
define hidden void @_ZN19OpenColorIO_v2_5dev13GpuShaderText13declareFloat3ERKNSt7__cxx1112basic_stringIcSt11char_traitsIcESaIcEEEfff(ptr noundef nonnull align 8 dereferenceable(764) %0, ptr noundef nonnull readonly align 8 captures(none) dereferenceable(32) %1, float noundef %2, float noundef %3, float noundef %4) local_unnamed_addr #5 align 2 personality ptr @__gxx_personality_v0 {
  %6 = alloca %"class.std::__cxx11::basic_string", align 8
  %7 = alloca %"class.std::__cxx11::basic_string", align 8
  %8 = alloca %"class.std::__cxx11::basic_string", align 8
  call void @llvm.lifetime.start.p0(i64 32, ptr nonnull %6) #22
  %9 = load i32, ptr %0, align 8, !tbaa !60
  call void @_ZN19OpenColorIO_v2_5dev14getFloatStringIfEENSt7__cxx1112basic_stringIcSt11char_traitsIcESaIcEEET_NS_11GpuLanguageE(ptr dead_on_unwind nonnull writable sret(%"class.std::__cxx11::basic_string") align 8 %6, float noundef %2, i32 noundef %9)
  call void @llvm.lifetime.start.p0(i64 32, ptr nonnull %7) #22
  %10 = load i32, ptr %0, align 8, !tbaa !60
  invoke void @_ZN19OpenColorIO_v2_5dev14getFloatStringIfEENSt7__cxx1112basic_stringIcSt11char_traitsIcESaIcEEET_NS_11GpuLanguageE(ptr dead_on_unwind nonnull writable sret(%"class.std::__cxx11::basic_string") align 8 %7, float noundef %3, i32 noundef %10)
          to label %11 unwind label %39

11:                                               ; preds = %5
  call void @llvm.lifetime.start.p0(i64 32, ptr nonnull %8) #22
  %12 = load i32, ptr %0, align 8, !tbaa !60
  invoke void @_ZN19OpenColorIO_v2_5dev14getFloatStringIfEENSt7__cxx1112basic_stringIcSt11char_traitsIcESaIcEEET_NS_11GpuLanguageE(ptr dead_on_unwind nonnull writable sret(%"class.std::__cxx11::basic_string") align 8 %8, float noundef %4, i32 noundef %12)
          to label %13 unwind label %41

13:                                               ; preds = %11
  invoke void @_ZN19OpenColorIO_v2_5dev13GpuShaderText13declareFloat3ERKNSt7__cxx1112basic_stringIcSt11char_traitsIcESaIcEEES8_S8_S8_(ptr noundef nonnull align 8 dereferenceable(764) %0, ptr noundef nonnull align 8 dereferenceable(32) %1, ptr noundef nonnull align 8 dereferenceable(32) %6, ptr noundef nonnull align 8 dereferenceable(32) %7, ptr noundef nonnull align 8 dereferenceable(32) %8)
          to label %14 unwind label %43

14:                                               ; preds = %13
  %15 = load ptr, ptr %8, align 8, !tbaa !25
  %16 = getelementptr inbounds nuw i8, ptr %8, i64 16
  %17 = icmp eq ptr %15, %16
  br i1 %17, label %_ZNKSt7__cxx1112basic_stringIcSt11char_traitsIcESaIcEE11_M_is_localEv.exit.thread.i.i, label %_ZNKSt7__cxx1112basic_stringIcSt11char_traitsIcESaIcEE11_M_is_localEv.exit.i.i

_ZNKSt7__cxx1112basic_stringIcSt11char_traitsIcESaIcEE11_M_is_localEv.exit.thread.i.i: ; preds = %14
  %18 = getelementptr inbounds nuw i8, ptr %8, i64 8
  %19 = load i64, ptr %18, align 8, !tbaa !26
  %20 = icmp ult i64 %19, 16
  call void @llvm.assume(i1 %20)
  br label %_ZNSt7__cxx1112basic_stringIcSt11char_traitsIcESaIcEED2Ev.exit

_ZNKSt7__cxx1112basic_stringIcSt11char_traitsIcESaIcEE11_M_is_localEv.exit.i.i: ; preds = %14
  %21 = load i64, ptr %16, align 8, !tbaa !34
  %22 = add i64 %21, 1
  call void @_ZdlPvm(ptr noundef %15, i64 noundef %22) #23
  br label %_ZNSt7__cxx1112basic_stringIcSt11char_traitsIcESaIcEED2Ev.exit

_ZNSt7__cxx1112basic_stringIcSt11char_traitsIcESaIcEED2Ev.exit: ; preds = %_ZNKSt7__cxx1112basic_stringIcSt11char_traitsIcESaIcEE11_M_is_localEv.exit.thread.i.i, %_ZNKSt7__cxx1112basic_stringIcSt11char_traitsIcESaIcEE11_M_is_localEv.exit.i.i
  call void @llvm.lifetime.end.p0(i64 32, ptr nonnull %8) #22
  %23 = load ptr, ptr %7, align 8, !tbaa !25
  %24 = getelementptr inbounds nuw i8, ptr %7, i64 16
  %25 = icmp eq ptr %23, %24
  br i1 %25, label %_ZNKSt7__cxx1112basic_stringIcSt11char_traitsIcESaIcEE11_M_is_localEv.exit.thread.i.i11, label %_ZNKSt7__cxx1112basic_stringIcSt11char_traitsIcESaIcEE11_M_is_localEv.exit.i.i10

_ZNKSt7__cxx1112basic_stringIcSt11char_traitsIcESaIcEE11_M_is_localEv.exit.thread.i.i11: ; preds = %_ZNSt7__cxx1112basic_stringIcSt11char_traitsIcESaIcEED2Ev.exit
  %26 = getelementptr inbounds nuw i8, ptr %7, i64 8
  %27 = load i64, ptr %26, align 8, !tbaa !26
  %28 = icmp ult i64 %27, 16
  call void @llvm.assume(i1 %28)
  br label %_ZNSt7__cxx1112basic_stringIcSt11char_traitsIcESaIcEED2Ev.exit12

_ZNKSt7__cxx1112basic_stringIcSt11char_traitsIcESaIcEE11_M_is_localEv.exit.i.i10: ; preds = %_ZNSt7__cxx1112basic_stringIcSt11char_traitsIcESaIcEED2Ev.exit
  %29 = load i64, ptr %24, align 8, !tbaa !34
  %30 = add i64 %29, 1
  call void @_ZdlPvm(ptr noundef %23, i64 noundef %30) #23
  br label %_ZNSt7__cxx1112basic_stringIcSt11char_traitsIcESaIcEED2Ev.exit12

_ZNSt7__cxx1112basic_stringIcSt11char_traitsIcESaIcEED2Ev.exit12: ; preds = %_ZNKSt7__cxx1112basic_stringIcSt11char_traitsIcESaIcEE11_M_is_localEv.exit.thread.i.i11, %_ZNKSt7__cxx1112basic_stringIcSt11char_traitsIcESaIcEE11_M_is_localEv.exit.i.i10
  call void @llvm.lifetime.end.p0(i64 32, ptr nonnull %7) #22
  %31 = load ptr, ptr %6, align 8, !tbaa !25
  %32 = getelementptr inbounds nuw i8, ptr %6, i64 16
  %33 = icmp eq ptr %31, %32
  br i1 %33, label %_ZNKSt7__cxx1112basic_stringIcSt11char_traitsIcESaIcEE11_M_is_localEv.exit.thread.i.i14, label %_ZNKSt7__cxx1112basic_stringIcSt11char_traitsIcESaIcEE11_M_is_localEv.exit.i.i13

_ZNKSt7__cxx1112basic_stringIcSt11char_traitsIcESaIcEE11_M_is_localEv.exit.thread.i.i14: ; preds = %_ZNSt7__cxx1112basic_stringIcSt11char_traitsIcESaIcEED2Ev.exit12
  %34 = getelementptr inbounds nuw i8, ptr %6, i64 8
  %35 = load i64, ptr %34, align 8, !tbaa !26
  %36 = icmp ult i64 %35, 16
  call void @llvm.assume(i1 %36)
  br label %_ZNSt7__cxx1112basic_stringIcSt11char_traitsIcESaIcEED2Ev.exit15

_ZNKSt7__cxx1112basic_stringIcSt11char_traitsIcESaIcEE11_M_is_localEv.exit.i.i13: ; preds = %_ZNSt7__cxx1112basic_stringIcSt11char_traitsIcESaIcEED2Ev.exit12
  %37 = load i64, ptr %32, align 8, !tbaa !34
  %38 = add i64 %37, 1
  call void @_ZdlPvm(ptr noundef %31, i64 noundef %38) #23
  br label %_ZNSt7__cxx1112basic_stringIcSt11char_traitsIcESaIcEED2Ev.exit15

_ZNSt7__cxx1112basic_stringIcSt11char_traitsIcESaIcEED2Ev.exit15: ; preds = %_ZNKSt7__cxx1112basic_stringIcSt11char_traitsIcESaIcEE11_M_is_localEv.exit.thread.i.i14, %_ZNKSt7__cxx1112basic_stringIcSt11char_traitsIcESaIcEE11_M_is_localEv.exit.i.i13
  call void @llvm.lifetime.end.p0(i64 32, ptr nonnull %6) #22
  ret void

39:                                               ; preds = %5
  %40 = landingpad { ptr, i32 }
          cleanup
  br label %_ZNSt7__cxx1112basic_stringIcSt11char_traitsIcESaIcEED2Ev.exit21

41:                                               ; preds = %11
  %42 = landingpad { ptr, i32 }
          cleanup
  br label %_ZNSt7__cxx1112basic_stringIcSt11char_traitsIcESaIcEED2Ev.exit18

43:                                               ; preds = %13
  %44 = landingpad { ptr, i32 }
          cleanup
  %45 = load ptr, ptr %8, align 8, !tbaa !25
  %46 = getelementptr inbounds nuw i8, ptr %8, i64 16
  %47 = icmp eq ptr %45, %46
  br i1 %47, label %_ZNKSt7__cxx1112basic_stringIcSt11char_traitsIcESaIcEE11_M_is_localEv.exit.thread.i.i17, label %_ZNKSt7__cxx1112basic_stringIcSt11char_traitsIcESaIcEE11_M_is_localEv.exit.i.i16

_ZNKSt7__cxx1112basic_stringIcSt11char_traitsIcESaIcEE11_M_is_localEv.exit.thread.i.i17: ; preds = %43
  %48 = getelementptr inbounds nuw i8, ptr %8, i64 8
  %49 = load i64, ptr %48, align 8, !tbaa !26
  %50 = icmp ult i64 %49, 16
  call void @llvm.assume(i1 %50)
  br label %_ZNSt7__cxx1112basic_stringIcSt11char_traitsIcESaIcEED2Ev.exit18

_ZNKSt7__cxx1112basic_stringIcSt11char_traitsIcESaIcEE11_M_is_localEv.exit.i.i16: ; preds = %43
  %51 = load i64, ptr %46, align 8, !tbaa !34
  %52 = add i64 %51, 1
  call void @_ZdlPvm(ptr noundef %45, i64 noundef %52) #23
  br label %_ZNSt7__cxx1112basic_stringIcSt11char_traitsIcESaIcEED2Ev.exit18

_ZNSt7__cxx1112basic_stringIcSt11char_traitsIcESaIcEED2Ev.exit18: ; preds = %_ZNKSt7__cxx1112basic_stringIcSt11char_traitsIcESaIcEE11_M_is_localEv.exit.i.i16, %_ZNKSt7__cxx1112basic_stringIcSt11char_traitsIcESaIcEE11_M_is_localEv.exit.thread.i.i17, %41
  %.pn = phi { ptr, i32 } [ %42, %41 ], [ %44, %_ZNKSt7__cxx1112basic_stringIcSt11char_traitsIcESaIcEE11_M_is_localEv.exit.thread.i.i17 ], [ %44, %_ZNKSt7__cxx1112basic_stringIcSt11char_traitsIcESaIcEE11_M_is_localEv.exit.i.i16 ]
  call void @llvm.lifetime.end.p0(i64 32, ptr nonnull %8) #22
  %53 = load ptr, ptr %7, align 8, !tbaa !25
  %54 = getelementptr inbounds nuw i8, ptr %7, i64 16
  %55 = icmp eq ptr %53, %54
  br i1 %55, label %_ZNKSt7__cxx1112basic_stringIcSt11char_traitsIcESaIcEE11_M_is_localEv.exit.thread.i.i20, label %_ZNKSt7__cxx1112basic_stringIcSt11char_traitsIcESaIcEE11_M_is_localEv.exit.i.i19

_ZNKSt7__cxx1112basic_stringIcSt11char_traitsIcESaIcEE11_M_is_localEv.exit.thread.i.i20: ; preds = %_ZNSt7__cxx1112basic_stringIcSt11char_traitsIcESaIcEED2Ev.exit18
  %56 = getelementptr inbounds nuw i8, ptr %7, i64 8
  %57 = load i64, ptr %56, align 8, !tbaa !26
  %58 = icmp ult i64 %57, 16
  call void @llvm.assume(i1 %58)
  br label %_ZNSt7__cxx1112basic_stringIcSt11char_traitsIcESaIcEED2Ev.exit21

_ZNKSt7__cxx1112basic_stringIcSt11char_traitsIcESaIcEE11_M_is_localEv.exit.i.i19: ; preds = %_ZNSt7__cxx1112basic_stringIcSt11char_traitsIcESaIcEED2Ev.exit18
  %59 = load i64, ptr %54, align 8, !tbaa !34
  %60 = add i64 %59, 1
  call void @_ZdlPvm(ptr noundef %53, i64 noundef %60) #23
  br label %_ZNSt7__cxx1112basic_stringIcSt11char_traitsIcESaIcEED2Ev.exit21

_ZNSt7__cxx1112basic_stringIcSt11char_traitsIcESaIcEED2Ev.exit21: ; preds = %_ZNKSt7__cxx1112basic_stringIcSt11char_traitsIcESaIcEE11_M_is_localEv.exit.i.i19, %_ZNKSt7__cxx1112basic_stringIcSt11char_traitsIcESaIcEE11_M_is_localEv.exit.thread.i.i20, %39
  %.pn.pn = phi { ptr, i32 } [ %40, %39 ], [ %.pn, %_ZNKSt7__cxx1112basic_stringIcSt11char_traitsIcESaIcEE11_M_is_localEv.exit.thread.i.i20 ], [ %.pn, %_ZNKSt7__cxx1112basic_stringIcSt11char_traitsIcESaIcEE11_M_is_localEv.exit.i.i19 ]
  call void @llvm.lifetime.end.p0(i64 32, ptr nonnull %7) #22
  %61 = load ptr, ptr %6, align 8, !tbaa !25
  %62 = getelementptr inbounds nuw i8, ptr %6, i64 16
  %63 = icmp eq ptr %61, %62
  br i1 %63, label %_ZNKSt7__cxx1112basic_stringIcSt11char_traitsIcESaIcEE11_M_is_localEv.exit.thread.i.i23, label %_ZNKSt7__cxx1112basic_stringIcSt11char_traitsIcESaIcEE11_M_is_localEv.exit.i.i22

_ZNKSt7__cxx1112basic_stringIcSt11char_traitsIcESaIcEE11_M_is_localEv.exit.thread.i.i23: ; preds = %_ZNSt7__cxx1112basic_stringIcSt11char_traitsIcESaIcEED2Ev.exit21
  %64 = getelementptr inbounds nuw i8, ptr %6, i64 8
  %65 = load i64, ptr %64, align 8, !tbaa !26
  %66 = icmp ult i64 %65, 16
  call void @llvm.assume(i1 %66)
  br label %_ZNSt7__cxx1112basic_stringIcSt11char_traitsIcESaIcEED2Ev.exit24

_ZNKSt7__cxx1112basic_stringIcSt11char_traitsIcESaIcEE11_M_is_localEv.exit.i.i22: ; preds = %_ZNSt7__cxx1112basic_stringIcSt11char_traitsIcESaIcEED2Ev.exit21
  %67 = load i64, ptr %62, align 8, !tbaa !34
  %68 = add i64 %67, 1
  call void @_ZdlPvm(ptr noundef %61, i64 noundef %68) #23
  br label %_ZNSt7__cxx1112basic_stringIcSt11char_traitsIcESaIcEED2Ev.exit24

_ZNSt7__cxx1112basic_stringIcSt11char_traitsIcESaIcEED2Ev.exit24: ; preds = %_ZNKSt7__cxx1112basic_stringIcSt11char_traitsIcESaIcEE11_M_is_localEv.exit.thread.i.i23, %_ZNKSt7__cxx1112basic_stringIcSt11char_traitsIcESaIcEE11_M_is_localEv.exit.i.i22
  call void @llvm.lifetime.end.p0(i64 32, ptr nonnull %6) #22
  resume { ptr, i32 } %.pn.pn
}